target datalayout = "e-m:e-p270:32:32-p271:32:32-p272:64:64-i64:64-i128:128-f80:128-n8:16:32:64-S128"
target triple = "x86_64-pc-linux-gnu"

%struct.t_disresdata = type { i32, i8, float, float, float, float, float, i32, i32, i32, float, ptr, ptr, ptr, ptr, ptr, i32, ptr }
%class.history_t = type { float, %"class.std::vector.158", float, %"class.std::vector.158" }
%"class.std::vector.158" = type { %"struct.std::_Vector_base.159" }
%"struct.std::_Vector_base.159" = type { %"struct.std::_Vector_base<float, std::allocator<float>>::_Vector_impl" }
%"struct.std::_Vector_base<float, std::allocator<float>>::_Vector_impl" = type { %"struct.std::_Vector_base<float, std::allocator<float>>::_Vector_impl_data" }
%"struct.std::_Vector_base<float, std::allocator<float>>::_Vector_impl_data" = type { ptr, ptr, ptr }

; Function Attrs: mustprogress nounwind uwtable
define linkonce_odr noundef nonnull align 4 dereferenceable(4) ptr @_ZNSt6vectorIfSaIfEEixEm(ptr noundef nonnull align 8 dereferenceable(24) %0, i64 noundef %1) #5 comdat align 2 {
  %3 = alloca ptr, align 8
  %4 = alloca i64, align 8
  store ptr %0, ptr %3, align 8, !tbaa !190
  store i64 %1, ptr %4, align 8, !tbaa !174
  %5 = load ptr, ptr %3, align 8
  %6 = getelementptr inbounds nuw %"struct.std::_Vector_base.159", ptr %5, i32 0, i32 0
  %7 = getelementptr inbounds nuw %"struct.std::_Vector_base<float, std::allocator<float>>::_Vector_impl_data", ptr %6, i32 0, i32 0
  %8 = load ptr, ptr %7, align 8, !tbaa !192
  %9 = load i64, ptr %4, align 8, !tbaa !174
  %10 = getelementptr inbounds nuw float, ptr %8, i64 %9
  ret ptr %10
}

; Function Attrs: mustprogress nounwind uwtable
define void @_Z21update_disres_historyRK12t_disresdataP9history_t(ptr noundef nonnull align 8 dereferenceable(104) %0, ptr noundef %1) #5 {
  %3 = alloca ptr, align 8
  %4 = alloca ptr, align 8
  %5 = alloca i32, align 4
  store ptr %0, ptr %3, align 8, !tbaa !23
  store ptr %1, ptr %4, align 8, !tbaa !148
  %6 = load ptr, ptr %3, align 8, !tbaa !23
  %7 = getelementptr inbounds nuw %struct.t_disresdata, ptr %6, i32 0, i32 3
  %8 = load float, ptr %7, align 4, !tbaa !130
  %9 = fcmp une float %8, 0.000000e+00
  br i1 %9, label %10, label %40

10:                                               ; preds = %2
  %11 = load ptr, ptr %3, align 8, !tbaa !23
  %12 = getelementptr inbounds nuw %struct.t_disresdata, ptr %11, i32 0, i32 6
  %13 = load float, ptr %12, align 8, !tbaa !269
  %14 = load ptr, ptr %4, align 8, !tbaa !148
  %15 = getelementptr inbounds nuw %class.history_t, ptr %14, i32 0, i32 0
  store float %13, ptr %15, align 8, !tbaa !150
  call void @llvm.lifetime.start.p0(i64 4, ptr %5) #16
  store i32 0, ptr %5, align 4, !tbaa !137
  br label %16

16:                                               ; preds = %36, %10
  %17 = load i32, ptr %5, align 4, !tbaa !137
  %18 = load ptr, ptr %3, align 8, !tbaa !23
  %19 = getelementptr inbounds nuw %struct.t_disresdata, ptr %18, i32 0, i32 8
  %20 = load i32, ptr %19, align 8, !tbaa !139
  %21 = icmp slt i32 %17, %20
  br i1 %21, label %23, label %22

22:                                               ; preds = %16
  call void @llvm.lifetime.end.p0(i64 4, ptr %5) #16
  br label %39

23:                                               ; preds = %16
  %24 = load ptr, ptr %3, align 8, !tbaa !23
  %25 = getelementptr inbounds nuw %struct.t_disresdata, ptr %24, i32 0, i32 12
  %26 = load ptr, ptr %25, align 8, !tbaa !268
  %27 = load i32, ptr %5, align 4, !tbaa !137
  %28 = sext i32 %27 to i64
  %29 = getelementptr inbounds float, ptr %26, i64 %28
  %30 = load float, ptr %29, align 4, !tbaa !261
  %31 = load ptr, ptr %4, align 8, !tbaa !148
  %32 = getelementptr inbounds nuw %class.history_t, ptr %31, i32 0, i32 1
  %33 = load i32, ptr %5, align 4, !tbaa !137
  %34 = sext i32 %33 to i64
  %35 = call noundef nonnull align 4 dereferenceable(4) ptr @_ZNSt6vectorIfSaIfEEixEm(ptr noundef nonnull align 8 dereferenceable(24) %32, i64 noundef %34) #16
  store float %30, ptr %35, align 4, !tbaa !261
  br label %36

36:                                               ; preds = %23
  %37 = load i32, ptr %5, align 4, !tbaa !137
  %38 = add nsw i32 %37, 1
  store i32 %38, ptr %5, align 4, !tbaa !137
  br label %16, !llvm.loop !301

39:                                               ; preds = %22
  br label %40

40:                                               ; preds = %39, %2
  ret void
}