; Function Attrs: mustprogress nofree norecurse nosync nounwind memory(readwrite, inaccessiblemem: none) uwtable
define void @_Z21update_disres_historyRK12t_disresdataP9history_t(ptr noundef nonnull readonly align 8 captures(none) dereferenceable(104) %0, ptr noundef captures(none) %1) local_unnamed_addr #15 {
  %3 = getelementptr inbounds nuw i8, ptr %0, i64 12
  %4 = load float, ptr %3, align 4, !tbaa !108
  %5 = fcmp une float %4, 0.000000e+00
  br i1 %5, label %6, label %.loopexit

6:                                                ; preds = %2
  %7 = getelementptr inbounds nuw i8, ptr %0, i64 24
  %8 = load float, ptr %7, align 8, !tbaa !163
  store float %8, ptr %1, align 8, !tbaa !133
  %9 = getelementptr inbounds nuw i8, ptr %0, i64 32
  %10 = load i32, ptr %9, align 8, !tbaa !118
  %11 = icmp sgt i32 %10, 0
  br i1 %11, label %.lr.ph, label %.loopexit

.lr.ph:                                           ; preds = %6
  %12 = getelementptr inbounds nuw i8, ptr %0, i64 56
  %13 = load ptr, ptr %12, align 8, !tbaa !161
  %14 = getelementptr inbounds nuw i8, ptr %1, i64 8
  %15 = load ptr, ptr %14, align 8, !tbaa !140
  %wide.trip.count = zext nneg i32 %10 to i64
  br label %16

16:                                               ; preds = %.lr.ph, %16
  %indvars.iv = phi i64 [ 0, %.lr.ph ], [ %indvars.iv.next, %16 ]
  %17 = getelementptr inbounds nuw float, ptr %13, i64 %indvars.iv
  %18 = load float, ptr %17, align 4, !tbaa !159
  %19 = getelementptr inbounds nuw float, ptr %15, i64 %indvars.iv
  store float %18, ptr %19, align 4, !tbaa !159
  %indvars.iv.next = add nuw nsw i64 %indvars.iv, 1
  %exitcond.not = icmp eq i64 %indvars.iv.next, %wide.trip.count
  br i1 %exitcond.not, label %.loopexit, label %16, !llvm.loop !189

.loopexit:                                        ; preds = %16, %6, %2
  ret void
}